; ModuleID = '60/1722.c'
source_filename = "60/1722.c"
target datalayout = "e-m:e-p270:32:32-p271:32:32-p272:64:64-i64:64-f80:128-n8:16:32:64-S128"
target triple = "x86_64-pc-linux-gnu"

@.str = private unnamed_addr constant [3 x i8] c"%d\00", align 1
@.str.1 = private unnamed_addr constant [6 x i8] c"empty\00", align 1
@.str.2 = private unnamed_addr constant [7 x i8] c"%d %d\0A\00", align 1

; Function Attrs: noinline nounwind uwtable
define dso_local i32 @fun(i32 %0) #0 {
  %2 = alloca i32, align 4
  %3 = alloca i32, align 4
  %4 = alloca i32, align 4
  %5 = alloca i32, align 4
  store i32 %0, i32* %3, align 4
  store i32 0, i32* %5, align 4
  store i32 3, i32* %4, align 4
  br label %6

6:                                                ; preds = %22, %1
  %7 = load i32, i32* %4, align 4
  %8 = sitofp i32 %7 to double
  %9 = load i32, i32* %3, align 4
  %10 = sitofp i32 %9 to double
  %11 = fmul double %10, 1.000000e+00
  %12 = call double @sqrt(double %11) #3
  %13 = fadd double %12, 1.000000e+00
  %14 = fcmp olt double %8, %13
  br i1 %14, label %15, label %25

15:                                               ; preds = %6
  %16 = load i32, i32* %3, align 4
  %17 = load i32, i32* %4, align 4
  %18 = srem i32 %16, %17
  %19 = icmp eq i32 %18, 0
  br i1 %19, label %20, label %21

20:                                               ; preds = %15
  store i32 1, i32* %5, align 4
  store i32 0, i32* %2, align 4
  br label %29

21:                                               ; preds = %15
  br label %22

22:                                               ; preds = %21
  %23 = load i32, i32* %4, align 4
  %24 = add nsw i32 %23, 2
  store i32 %24, i32* %4, align 4
  br label %6

25:                                               ; preds = %6
  %26 = load i32, i32* %5, align 4
  %27 = icmp eq i32 %26, 0
  br i1 %27, label %28, label %29

28:                                               ; preds = %25
  store i32 1, i32* %2, align 4
  br label %29

29:                                               ; preds = %20, %28, %25
  %30 = load i32, i32* %2, align 4
  ret i32 %30
}

; Function Attrs: nounwind
declare dso_local double @sqrt(double) #1

; Function Attrs: noinline nounwind uwtable
define dso_local i32 @main() #0 {
  %1 = alloca i32, align 4
  %2 = alloca i32, align 4
  %3 = alloca i32, align 4
  store i32 0, i32* %1, align 4
  %4 = call i32 (i8*, ...) @__isoc99_scanf(i8* getelementptr inbounds ([3 x i8], [3 x i8]* @.str, i64 0, i64 0), i32* %2)
  %5 = load i32, i32* %2, align 4
  %6 = icmp slt i32 %5, 5
  br i1 %6, label %7, label %9

7:                                                ; preds = %0
  %8 = call i32 (i8*, ...) @printf(i8* getelementptr inbounds ([6 x i8], [6 x i8]* @.str.1, i64 0, i64 0))
  br label %33

9:                                                ; preds = %0
  store i32 3, i32* %3, align 4
  br label %10

10:                                               ; preds = %29, %9
  %11 = load i32, i32* %3, align 4
  %12 = load i32, i32* %2, align 4
  %13 = icmp slt i32 %11, %12
  br i1 %13, label %14, label %32

14:                                               ; preds = %10
  %15 = load i32, i32* %3, align 4
  %16 = call i32 @fun(i32 %15)
  %17 = icmp ne i32 %16, 0
  br i1 %17, label %18, label %28

18:                                               ; preds = %14
  %19 = load i32, i32* %3, align 4
  %20 = add nsw i32 %19, 2
  %21 = call i32 @fun(i32 %20)
  %22 = icmp ne i32 %21, 0
  br i1 %22, label %23, label %28

23:                                               ; preds = %18
  %24 = load i32, i32* %3, align 4
  %25 = load i32, i32* %3, align 4
  %26 = add nsw i32 %25, 2
  %27 = call i32 (i8*, ...) @printf(i8* getelementptr inbounds ([7 x i8], [7 x i8]* @.str.2, i64 0, i64 0), i32 %24, i32 %26)
  br label %28

28:                                               ; preds = %23, %18, %14
  br label %29

29:                                               ; preds = %28
  %30 = load i32, i32* %3, align 4
  %31 = add nsw i32 %30, 2
  store i32 %31, i32* %3, align 4
  br label %10

32:                                               ; preds = %10
  br label %33

33:                                               ; preds = %32, %7
  ret i32 0
}

declare dso_local i32 @__isoc99_scanf(i8*, ...) #2

declare dso_local i32 @printf(i8*, ...) #2


!llvm.module.flags = !{!0}
!llvm.ident = !{!1}

!0 = !{i32 1, !"wchar_size", i32 4}
!1 = !{!"clang version 10.0.0-4ubuntu1 "}
