; ModuleID = 'source-C-CXX/59/1722.c'
source_filename = "source-C-CXX/59/1722.c"
target datalayout = "e-m:e-p270:32:32-p271:32:32-p272:64:64-i64:64-f80:128-n8:16:32:64-S128"
target triple = "x86_64-pc-linux-gnu"

@.str = private unnamed_addr constant [3 x i8] c"%d\00", align 1
@.str.1 = private unnamed_addr constant [6 x i8] c"empty\00", align 1
@.str.2 = private unnamed_addr constant [7 x i8] c"%d %d\0A\00", align 1

; Function Attrs: nofree nounwind sspstrong uwtable
define dso_local i32 @fun(i32 %0) local_unnamed_addr #0 {
  %2 = sitofp i32 %0 to double
  %3 = tail call double @sqrt(double %2) #4
  %4 = fadd double %3, 1.000000e+00
  %5 = fcmp ogt double %4, 3.000000e+00
  br i1 %5, label %11, label %16

6:                                                ; preds = %11
  %7 = sitofp i32 %15 to double
  %8 = tail call double @sqrt(double %2) #4
  %9 = fadd double %8, 1.000000e+00
  %10 = fcmp ogt double %9, %7
  br i1 %10, label %11, label %16, !llvm.loop !5

11:                                               ; preds = %1, %6
  %12 = phi i32 [ %15, %6 ], [ 3, %1 ]
  %13 = srem i32 %0, %12
  %14 = icmp eq i32 %13, 0
  %15 = add nuw nsw i32 %12, 2
  br i1 %14, label %16, label %6

16:                                               ; preds = %11, %6, %1
  %17 = phi i32 [ 1, %1 ], [ 1, %6 ], [ 0, %11 ]
  ret i32 %17
}

; Function Attrs: argmemonly mustprogress nofree nosync nounwind willreturn
declare void @llvm.lifetime.start.p0i8(i64 immarg, i8* nocapture) #1

; Function Attrs: mustprogress nofree nounwind willreturn
declare double @sqrt(double) local_unnamed_addr #2

; Function Attrs: argmemonly mustprogress nofree nosync nounwind willreturn
declare void @llvm.lifetime.end.p0i8(i64 immarg, i8* nocapture) #1

; Function Attrs: nofree nounwind sspstrong uwtable
define dso_local i32 @main() local_unnamed_addr #0 {
  %1 = alloca i32, align 4
  %2 = bitcast i32* %1 to i8*
  call void @llvm.lifetime.start.p0i8(i64 4, i8* nonnull %2) #4
  %3 = call i32 (i8*, ...) @__isoc99_scanf(i8* getelementptr inbounds ([3 x i8], [3 x i8]* @.str, i64 0, i64 0), i32* nonnull %1)
  %4 = load i32, i32* %1, align 4, !tbaa !7
  %5 = icmp slt i32 %4, 5
  br i1 %5, label %6, label %8

6:                                                ; preds = %0
  %7 = call i32 (i8*, ...) @printf(i8* nonnull dereferenceable(1) getelementptr inbounds ([6 x i8], [6 x i8]* @.str.1, i64 0, i64 0))
  br label %48

8:                                                ; preds = %0, %44
  %9 = phi i32 [ %45, %44 ], [ 3, %0 ]
  %10 = sitofp i32 %9 to double
  %11 = call double @sqrt(double %10) #4
  %12 = fadd double %11, 1.000000e+00
  %13 = fcmp ogt double %12, 3.000000e+00
  br i1 %13, label %19, label %24

14:                                               ; preds = %19
  %15 = sitofp i32 %23 to double
  %16 = call double @sqrt(double %10) #4
  %17 = fadd double %16, 1.000000e+00
  %18 = fcmp ogt double %17, %15
  br i1 %18, label %19, label %24, !llvm.loop !5

19:                                               ; preds = %8, %14
  %20 = phi i32 [ %23, %14 ], [ 3, %8 ]
  %21 = urem i32 %9, %20
  %22 = icmp eq i32 %21, 0
  %23 = add nuw nsw i32 %20, 2
  br i1 %22, label %42, label %14

24:                                               ; preds = %14, %8
  %25 = add nuw nsw i32 %9, 2
  %26 = sitofp i32 %25 to double
  %27 = call double @sqrt(double %26) #4
  %28 = fadd double %27, 1.000000e+00
  %29 = fcmp ogt double %28, 3.000000e+00
  br i1 %29, label %35, label %40

30:                                               ; preds = %35
  %31 = sitofp i32 %39 to double
  %32 = call double @sqrt(double %26) #4
  %33 = fadd double %32, 1.000000e+00
  %34 = fcmp ogt double %33, %31
  br i1 %34, label %35, label %40, !llvm.loop !5

35:                                               ; preds = %24, %30
  %36 = phi i32 [ %39, %30 ], [ 3, %24 ]
  %37 = urem i32 %25, %36
  %38 = icmp eq i32 %37, 0
  %39 = add nuw nsw i32 %36, 2
  br i1 %38, label %44, label %30

40:                                               ; preds = %30, %24
  %41 = call i32 (i8*, ...) @printf(i8* nonnull dereferenceable(1) getelementptr inbounds ([7 x i8], [7 x i8]* @.str.2, i64 0, i64 0), i32 %9, i32 %25)
  br label %44

42:                                               ; preds = %19
  %43 = add nuw nsw i32 %9, 2
  br label %44

44:                                               ; preds = %35, %42, %40
  %45 = phi i32 [ %43, %42 ], [ %25, %40 ], [ %25, %35 ]
  %46 = load i32, i32* %1, align 4, !tbaa !7
  %47 = icmp slt i32 %45, %46
  br i1 %47, label %8, label %48, !llvm.loop !11

48:                                               ; preds = %44, %6
  call void @llvm.lifetime.end.p0i8(i64 4, i8* nonnull %2) #4
  ret i32 0
}

; Function Attrs: nofree nounwind
declare noundef i32 @__isoc99_scanf(i8* nocapture noundef readonly, ...) local_unnamed_addr #3

; Function Attrs: nofree nounwind
declare noundef i32 @printf(i8* nocapture noundef readonly, ...) local_unnamed_addr #3


!llvm.module.flags = !{!0, !1, !2, !3}
!llvm.ident = !{!4}

!0 = !{i32 1, !"wchar_size", i32 4}
!1 = !{i32 7, !"PIC Level", i32 2}
!2 = !{i32 7, !"PIE Level", i32 2}
!3 = !{i32 7, !"uwtable", i32 1}
!4 = !{!"clang version 13.0.0"}
!5 = distinct !{!5, !6}
!6 = !{!"llvm.loop.mustprogress"}
!7 = !{!8, !8, i64 0}
!8 = !{!"int", !9, i64 0}
!9 = !{!"omnipotent char", !10, i64 0}
!10 = !{!"Simple C/C++ TBAA"}
!11 = distinct !{!11, !6}
